
STM32F103C6_Driver.elf:     file format elf32-littlearm

Sections:
Idx Name          Size      VMA       LMA       File off  Algn
  0 .isr_vector   00000130  08000000  08000000  00010000  2**0
                  CONTENTS, ALLOC, LOAD, READONLY, DATA
  1 .text         00000b34  08000130  08000130  00010130  2**2
                  CONTENTS, ALLOC, LOAD, READONLY, CODE
  2 .rodata       00000018  08000c64  08000c64  00010c64  2**2
                  CONTENTS, ALLOC, LOAD, READONLY, DATA
  3 .ARM.extab    00000000  08000c7c  08000c7c  00010c84  2**0
                  CONTENTS
  4 .ARM          00000000  08000c7c  08000c7c  00010c84  2**0
                  CONTENTS
  5 .preinit_array 00000000  08000c7c  08000c84  00010c84  2**0
                  CONTENTS, ALLOC, LOAD, DATA
  6 .init_array   00000004  08000c7c  08000c7c  00010c7c  2**2
                  CONTENTS, ALLOC, LOAD, DATA
  7 .fini_array   00000004  08000c80  08000c80  00010c80  2**2
                  CONTENTS, ALLOC, LOAD, DATA
  8 .data         00000000  20000000  20000000  00010c84  2**0
                  CONTENTS, ALLOC, LOAD, DATA
  9 .bss          00000068  20000000  08000c84  00020000  2**2
                  ALLOC
 10 ._user_heap_stack 00000600  20000068  08000c84  00020068  2**0
                  ALLOC
 11 .ARM.attributes 00000029  00000000  00000000  00010c84  2**0
                  CONTENTS, READONLY
 12 .debug_info   000016c5  00000000  00000000  00010cad  2**0
                  CONTENTS, READONLY, DEBUGGING
 13 .debug_abbrev 000007ae  00000000  00000000  00012372  2**0
                  CONTENTS, READONLY, DEBUGGING
 14 .debug_loc    00000afc  00000000  00000000  00012b20  2**0
                  CONTENTS, READONLY, DEBUGGING
 15 .debug_aranges 00000218  00000000  00000000  00013620  2**3
                  CONTENTS, READONLY, DEBUGGING
 16 .debug_ranges 000001a0  00000000  00000000  00013838  2**3
                  CONTENTS, READONLY, DEBUGGING
 17 .debug_macro  00000e83  00000000  00000000  000139d8  2**0
                  CONTENTS, READONLY, DEBUGGING
 18 .debug_line   00001579  00000000  00000000  0001485b  2**0
                  CONTENTS, READONLY, DEBUGGING
 19 .debug_str    0000662e  00000000  00000000  00015dd4  2**0
                  CONTENTS, READONLY, DEBUGGING
 20 .comment      000000ce  00000000  00000000  0001c402  2**0
                  CONTENTS, READONLY
 21 .debug_frame  0000060c  00000000  00000000  0001c4d0  2**2
                  CONTENTS, READONLY, DEBUGGING

Disassembly of section .text:

08000130 <__do_global_dtors_aux>:
 8000130:	b510      	push	{r4, lr}
 8000132:	4c05      	ldr	r4, [pc, #20]	; (8000148 <__do_global_dtors_aux+0x18>)
 8000134:	7823      	ldrb	r3, [r4, #0]
 8000136:	b933      	cbnz	r3, 8000146 <__do_global_dtors_aux+0x16>
 8000138:	4b04      	ldr	r3, [pc, #16]	; (800014c <__do_global_dtors_aux+0x1c>)
 800013a:	b113      	cbz	r3, 8000142 <__do_global_dtors_aux+0x12>
 800013c:	4804      	ldr	r0, [pc, #16]	; (8000150 <__do_global_dtors_aux+0x20>)
 800013e:	f3af 8000 	nop.w
 8000142:	2301      	movs	r3, #1
 8000144:	7023      	strb	r3, [r4, #0]
 8000146:	bd10      	pop	{r4, pc}
 8000148:	20000000 	.word	0x20000000
 800014c:	00000000 	.word	0x00000000
 8000150:	08000c4c 	.word	0x08000c4c

08000154 <frame_dummy>:
 8000154:	b508      	push	{r3, lr}
 8000156:	4b03      	ldr	r3, [pc, #12]	; (8000164 <frame_dummy+0x10>)
 8000158:	b11b      	cbz	r3, 8000162 <frame_dummy+0xe>
 800015a:	4903      	ldr	r1, [pc, #12]	; (8000168 <frame_dummy+0x14>)
 800015c:	4803      	ldr	r0, [pc, #12]	; (800016c <frame_dummy+0x18>)
 800015e:	f3af 8000 	nop.w
 8000162:	bd08      	pop	{r3, pc}
 8000164:	00000000 	.word	0x00000000
 8000168:	20000004 	.word	0x20000004
 800016c:	08000c4c 	.word	0x08000c4c

08000170 <USART_Test_2_Debugging_Using_Interrupt>:
static void clock_init(void);
static void USART1_CallBack(void);

/* =========== Main Program ========== */
void USART_Test_2_Debugging_Using_Interrupt(void)
{
 8000170:	b580      	push	{r7, lr}
 8000172:	b086      	sub	sp, #24
 8000174:	af00      	add	r7, sp, #0
	/* Initializing the clock */
	clock_init();
 8000176:	f000 f81f 	bl	80001b8 <clock_init>

	/* Configuration of USART1 */
	USART_Config_t USART1_Config;

	USART1_Config.BaudRate = UART_BaudRate_115200;
 800017a:	f44f 33e1 	mov.w	r3, #115200	; 0x1c200
 800017e:	60bb      	str	r3, [r7, #8]
	USART1_Config.HwFlowCtl = UART_HwFlowCtl_NONE;
 8000180:	2300      	movs	r3, #0
 8000182:	73fb      	strb	r3, [r7, #15]
	USART1_Config.IRQ_Enable = UART_IRQ_Enable_RXNEIE;
 8000184:	2320      	movs	r3, #32
 8000186:	743b      	strb	r3, [r7, #16]
	USART1_Config.P_IRQ_CallBack = USART1_CallBack;
 8000188:	4b09      	ldr	r3, [pc, #36]	; (80001b0 <USART_Test_2_Debugging_Using_Interrupt+0x40>)
 800018a:	617b      	str	r3, [r7, #20]
	USART1_Config.Parity = UART_Parity_NONE;
 800018c:	2300      	movs	r3, #0
 800018e:	737b      	strb	r3, [r7, #13]
	USART1_Config.Payload_Length = UART_Payload_Length_8B;
 8000190:	2300      	movs	r3, #0
 8000192:	733b      	strb	r3, [r7, #12]
	USART1_Config.StopBits = UART_StopBits_1;
 8000194:	2300      	movs	r3, #0
 8000196:	73bb      	strb	r3, [r7, #14]
	USART1_Config.USART_Mode = UART_Mode_TX_RX;
 8000198:	230c      	movs	r3, #12
 800019a:	713b      	strb	r3, [r7, #4]

	MCAL_UART_Init(USART1, &USART1_Config);
 800019c:	1d3b      	adds	r3, r7, #4
 800019e:	4619      	mov	r1, r3
 80001a0:	4804      	ldr	r0, [pc, #16]	; (80001b4 <USART_Test_2_Debugging_Using_Interrupt+0x44>)
 80001a2:	f000 fad9 	bl	8000758 <MCAL_UART_Init>
	MCAL_UART_GPIO_Set_Pins(USART1);
 80001a6:	4803      	ldr	r0, [pc, #12]	; (80001b4 <USART_Test_2_Debugging_Using_Interrupt+0x44>)
 80001a8:	f000 fc54 	bl	8000a54 <MCAL_UART_GPIO_Set_Pins>

	while(1){}
 80001ac:	e7fe      	b.n	80001ac <USART_Test_2_Debugging_Using_Interrupt+0x3c>
 80001ae:	bf00      	nop
 80001b0:	080001ed 	.word	0x080001ed
 80001b4:	40013800 	.word	0x40013800

080001b8 <clock_init>:
}

/* ======== clock Initialize definition ======= */
static void clock_init(void)
{
 80001b8:	b480      	push	{r7}
 80001ba:	af00      	add	r7, sp, #0
	/* Enable clock GPIOA */
	RCC_GPIOA_CLK_EN();
 80001bc:	4b0a      	ldr	r3, [pc, #40]	; (80001e8 <clock_init+0x30>)
 80001be:	699b      	ldr	r3, [r3, #24]
 80001c0:	4a09      	ldr	r2, [pc, #36]	; (80001e8 <clock_init+0x30>)
 80001c2:	f043 0304 	orr.w	r3, r3, #4
 80001c6:	6193      	str	r3, [r2, #24]

	/* Enable clock GPIOB */
	RCC_GPIOB_CLK_EN();
 80001c8:	4b07      	ldr	r3, [pc, #28]	; (80001e8 <clock_init+0x30>)
 80001ca:	699b      	ldr	r3, [r3, #24]
 80001cc:	4a06      	ldr	r2, [pc, #24]	; (80001e8 <clock_init+0x30>)
 80001ce:	f043 0308 	orr.w	r3, r3, #8
 80001d2:	6193      	str	r3, [r2, #24]

	/* Enable Clock For AFIO */
	RCC_AFIO_CLK_EN();
 80001d4:	4b04      	ldr	r3, [pc, #16]	; (80001e8 <clock_init+0x30>)
 80001d6:	699b      	ldr	r3, [r3, #24]
 80001d8:	4a03      	ldr	r2, [pc, #12]	; (80001e8 <clock_init+0x30>)
 80001da:	f043 0301 	orr.w	r3, r3, #1
 80001de:	6193      	str	r3, [r2, #24]
}
 80001e0:	bf00      	nop
 80001e2:	46bd      	mov	sp, r7
 80001e4:	bc80      	pop	{r7}
 80001e6:	4770      	bx	lr
 80001e8:	40021000 	.word	0x40021000

080001ec <USART1_CallBack>:

/* ======== IRQ CallBack Function ======= */

static void USART1_CallBack(void)
{
 80001ec:	b580      	push	{r7, lr}
 80001ee:	af00      	add	r7, sp, #0
	MCAL_UART_ReceiveData(USART1, &data, disable);
 80001f0:	2201      	movs	r2, #1
 80001f2:	4905      	ldr	r1, [pc, #20]	; (8000208 <USART1_CallBack+0x1c>)
 80001f4:	4805      	ldr	r0, [pc, #20]	; (800020c <USART1_CallBack+0x20>)
 80001f6:	f000 fbc1 	bl	800097c <MCAL_UART_ReceiveData>
	MCAL_UART_SendData(USART1, &data, disable);
 80001fa:	2201      	movs	r2, #1
 80001fc:	4902      	ldr	r1, [pc, #8]	; (8000208 <USART1_CallBack+0x1c>)
 80001fe:	4803      	ldr	r0, [pc, #12]	; (800020c <USART1_CallBack+0x20>)
 8000200:	f000 fb72 	bl	80008e8 <MCAL_UART_SendData>
}
 8000204:	bf00      	nop
 8000206:	bd80      	pop	{r7, pc}
 8000208:	20000028 	.word	0x20000028
 800020c:	40013800 	.word	0x40013800

08000210 <EXTI0_IRQHandler>:
 8000210:	b580      	push	{r7, lr}
 8000212:	af00      	add	r7, sp, #0
 8000214:	4b05      	ldr	r3, [pc, #20]	; (800022c <EXTI0_IRQHandler+0x1c>)
 8000216:	695b      	ldr	r3, [r3, #20]
 8000218:	4a04      	ldr	r2, [pc, #16]	; (800022c <EXTI0_IRQHandler+0x1c>)
 800021a:	f043 0301 	orr.w	r3, r3, #1
 800021e:	6153      	str	r3, [r2, #20]
 8000220:	4b03      	ldr	r3, [pc, #12]	; (8000230 <EXTI0_IRQHandler+0x20>)
 8000222:	681b      	ldr	r3, [r3, #0]
 8000224:	4798      	blx	r3
 8000226:	bf00      	nop
 8000228:	bd80      	pop	{r7, pc}
 800022a:	bf00      	nop
 800022c:	40010400 	.word	0x40010400
 8000230:	2000002c 	.word	0x2000002c

08000234 <EXTI1_IRQHandler>:
 8000234:	b580      	push	{r7, lr}
 8000236:	af00      	add	r7, sp, #0
 8000238:	4b05      	ldr	r3, [pc, #20]	; (8000250 <EXTI1_IRQHandler+0x1c>)
 800023a:	695b      	ldr	r3, [r3, #20]
 800023c:	4a04      	ldr	r2, [pc, #16]	; (8000250 <EXTI1_IRQHandler+0x1c>)
 800023e:	f043 0302 	orr.w	r3, r3, #2
 8000242:	6153      	str	r3, [r2, #20]
 8000244:	4b03      	ldr	r3, [pc, #12]	; (8000254 <EXTI1_IRQHandler+0x20>)
 8000246:	685b      	ldr	r3, [r3, #4]
 8000248:	4798      	blx	r3
 800024a:	bf00      	nop
 800024c:	bd80      	pop	{r7, pc}
 800024e:	bf00      	nop
 8000250:	40010400 	.word	0x40010400
 8000254:	2000002c 	.word	0x2000002c

08000258 <EXTI2_IRQHandler>:
 8000258:	b580      	push	{r7, lr}
 800025a:	af00      	add	r7, sp, #0
 800025c:	4b05      	ldr	r3, [pc, #20]	; (8000274 <EXTI2_IRQHandler+0x1c>)
 800025e:	695b      	ldr	r3, [r3, #20]
 8000260:	4a04      	ldr	r2, [pc, #16]	; (8000274 <EXTI2_IRQHandler+0x1c>)
 8000262:	f043 0304 	orr.w	r3, r3, #4
 8000266:	6153      	str	r3, [r2, #20]
 8000268:	4b03      	ldr	r3, [pc, #12]	; (8000278 <EXTI2_IRQHandler+0x20>)
 800026a:	689b      	ldr	r3, [r3, #8]
 800026c:	4798      	blx	r3
 800026e:	bf00      	nop
 8000270:	bd80      	pop	{r7, pc}
 8000272:	bf00      	nop
 8000274:	40010400 	.word	0x40010400
 8000278:	2000002c 	.word	0x2000002c

0800027c <EXTI3_IRQHandler>:
 800027c:	b580      	push	{r7, lr}
 800027e:	af00      	add	r7, sp, #0
 8000280:	4b05      	ldr	r3, [pc, #20]	; (8000298 <EXTI3_IRQHandler+0x1c>)
 8000282:	695b      	ldr	r3, [r3, #20]
 8000284:	4a04      	ldr	r2, [pc, #16]	; (8000298 <EXTI3_IRQHandler+0x1c>)
 8000286:	f043 0308 	orr.w	r3, r3, #8
 800028a:	6153      	str	r3, [r2, #20]
 800028c:	4b03      	ldr	r3, [pc, #12]	; (800029c <EXTI3_IRQHandler+0x20>)
 800028e:	68db      	ldr	r3, [r3, #12]
 8000290:	4798      	blx	r3
 8000292:	bf00      	nop
 8000294:	bd80      	pop	{r7, pc}
 8000296:	bf00      	nop
 8000298:	40010400 	.word	0x40010400
 800029c:	2000002c 	.word	0x2000002c

080002a0 <EXTI4_IRQHandler>:
 80002a0:	b580      	push	{r7, lr}
 80002a2:	af00      	add	r7, sp, #0
 80002a4:	4b05      	ldr	r3, [pc, #20]	; (80002bc <EXTI4_IRQHandler+0x1c>)
 80002a6:	695b      	ldr	r3, [r3, #20]
 80002a8:	4a04      	ldr	r2, [pc, #16]	; (80002bc <EXTI4_IRQHandler+0x1c>)
 80002aa:	f043 0310 	orr.w	r3, r3, #16
 80002ae:	6153      	str	r3, [r2, #20]
 80002b0:	4b03      	ldr	r3, [pc, #12]	; (80002c0 <EXTI4_IRQHandler+0x20>)
 80002b2:	691b      	ldr	r3, [r3, #16]
 80002b4:	4798      	blx	r3
 80002b6:	bf00      	nop
 80002b8:	bd80      	pop	{r7, pc}
 80002ba:	bf00      	nop
 80002bc:	40010400 	.word	0x40010400
 80002c0:	2000002c 	.word	0x2000002c

080002c4 <EXTI9_5_IRQHandler>:
 80002c4:	b580      	push	{r7, lr}
 80002c6:	af00      	add	r7, sp, #0
 80002c8:	4b26      	ldr	r3, [pc, #152]	; (8000364 <EXTI9_5_IRQHandler+0xa0>)
 80002ca:	695b      	ldr	r3, [r3, #20]
 80002cc:	f003 0320 	and.w	r3, r3, #32
 80002d0:	2b00      	cmp	r3, #0
 80002d2:	d008      	beq.n	80002e6 <EXTI9_5_IRQHandler+0x22>
 80002d4:	4b23      	ldr	r3, [pc, #140]	; (8000364 <EXTI9_5_IRQHandler+0xa0>)
 80002d6:	695b      	ldr	r3, [r3, #20]
 80002d8:	4a22      	ldr	r2, [pc, #136]	; (8000364 <EXTI9_5_IRQHandler+0xa0>)
 80002da:	f043 0320 	orr.w	r3, r3, #32
 80002de:	6153      	str	r3, [r2, #20]
 80002e0:	4b21      	ldr	r3, [pc, #132]	; (8000368 <EXTI9_5_IRQHandler+0xa4>)
 80002e2:	695b      	ldr	r3, [r3, #20]
 80002e4:	4798      	blx	r3
 80002e6:	4b1f      	ldr	r3, [pc, #124]	; (8000364 <EXTI9_5_IRQHandler+0xa0>)
 80002e8:	695b      	ldr	r3, [r3, #20]
 80002ea:	f003 0340 	and.w	r3, r3, #64	; 0x40
 80002ee:	2b00      	cmp	r3, #0
 80002f0:	d008      	beq.n	8000304 <EXTI9_5_IRQHandler+0x40>
 80002f2:	4b1c      	ldr	r3, [pc, #112]	; (8000364 <EXTI9_5_IRQHandler+0xa0>)
 80002f4:	695b      	ldr	r3, [r3, #20]
 80002f6:	4a1b      	ldr	r2, [pc, #108]	; (8000364 <EXTI9_5_IRQHandler+0xa0>)
 80002f8:	f043 0340 	orr.w	r3, r3, #64	; 0x40
 80002fc:	6153      	str	r3, [r2, #20]
 80002fe:	4b1a      	ldr	r3, [pc, #104]	; (8000368 <EXTI9_5_IRQHandler+0xa4>)
 8000300:	699b      	ldr	r3, [r3, #24]
 8000302:	4798      	blx	r3
 8000304:	4b17      	ldr	r3, [pc, #92]	; (8000364 <EXTI9_5_IRQHandler+0xa0>)
 8000306:	695b      	ldr	r3, [r3, #20]
 8000308:	f003 0380 	and.w	r3, r3, #128	; 0x80
 800030c:	2b00      	cmp	r3, #0
 800030e:	d008      	beq.n	8000322 <EXTI9_5_IRQHandler+0x5e>
 8000310:	4b14      	ldr	r3, [pc, #80]	; (8000364 <EXTI9_5_IRQHandler+0xa0>)
 8000312:	695b      	ldr	r3, [r3, #20]
 8000314:	4a13      	ldr	r2, [pc, #76]	; (8000364 <EXTI9_5_IRQHandler+0xa0>)
 8000316:	f043 0380 	orr.w	r3, r3, #128	; 0x80
 800031a:	6153      	str	r3, [r2, #20]
 800031c:	4b12      	ldr	r3, [pc, #72]	; (8000368 <EXTI9_5_IRQHandler+0xa4>)
 800031e:	69db      	ldr	r3, [r3, #28]
 8000320:	4798      	blx	r3
 8000322:	4b10      	ldr	r3, [pc, #64]	; (8000364 <EXTI9_5_IRQHandler+0xa0>)
 8000324:	695b      	ldr	r3, [r3, #20]
 8000326:	f403 7380 	and.w	r3, r3, #256	; 0x100
 800032a:	2b00      	cmp	r3, #0
 800032c:	d008      	beq.n	8000340 <EXTI9_5_IRQHandler+0x7c>
 800032e:	4b0d      	ldr	r3, [pc, #52]	; (8000364 <EXTI9_5_IRQHandler+0xa0>)
 8000330:	695b      	ldr	r3, [r3, #20]
 8000332:	4a0c      	ldr	r2, [pc, #48]	; (8000364 <EXTI9_5_IRQHandler+0xa0>)
 8000334:	f443 7380 	orr.w	r3, r3, #256	; 0x100
 8000338:	6153      	str	r3, [r2, #20]
 800033a:	4b0b      	ldr	r3, [pc, #44]	; (8000368 <EXTI9_5_IRQHandler+0xa4>)
 800033c:	6a1b      	ldr	r3, [r3, #32]
 800033e:	4798      	blx	r3
 8000340:	4b08      	ldr	r3, [pc, #32]	; (8000364 <EXTI9_5_IRQHandler+0xa0>)
 8000342:	695b      	ldr	r3, [r3, #20]
 8000344:	f403 7300 	and.w	r3, r3, #512	; 0x200
 8000348:	2b00      	cmp	r3, #0
 800034a:	d008      	beq.n	800035e <EXTI9_5_IRQHandler+0x9a>
 800034c:	4b05      	ldr	r3, [pc, #20]	; (8000364 <EXTI9_5_IRQHandler+0xa0>)
 800034e:	695b      	ldr	r3, [r3, #20]
 8000350:	4a04      	ldr	r2, [pc, #16]	; (8000364 <EXTI9_5_IRQHandler+0xa0>)
 8000352:	f443 7300 	orr.w	r3, r3, #512	; 0x200
 8000356:	6153      	str	r3, [r2, #20]
 8000358:	4b03      	ldr	r3, [pc, #12]	; (8000368 <EXTI9_5_IRQHandler+0xa4>)
 800035a:	6a5b      	ldr	r3, [r3, #36]	; 0x24
 800035c:	4798      	blx	r3
 800035e:	bf00      	nop
 8000360:	bd80      	pop	{r7, pc}
 8000362:	bf00      	nop
 8000364:	40010400 	.word	0x40010400
 8000368:	2000002c 	.word	0x2000002c

0800036c <EXTI15_10_IRQHandler>:
 800036c:	b580      	push	{r7, lr}
 800036e:	af00      	add	r7, sp, #0
 8000370:	4b2d      	ldr	r3, [pc, #180]	; (8000428 <EXTI15_10_IRQHandler+0xbc>)
 8000372:	695b      	ldr	r3, [r3, #20]
 8000374:	f403 6380 	and.w	r3, r3, #1024	; 0x400
 8000378:	2b00      	cmp	r3, #0
 800037a:	d008      	beq.n	800038e <EXTI15_10_IRQHandler+0x22>
 800037c:	4b2a      	ldr	r3, [pc, #168]	; (8000428 <EXTI15_10_IRQHandler+0xbc>)
 800037e:	695b      	ldr	r3, [r3, #20]
 8000380:	4a29      	ldr	r2, [pc, #164]	; (8000428 <EXTI15_10_IRQHandler+0xbc>)
 8000382:	f443 6380 	orr.w	r3, r3, #1024	; 0x400
 8000386:	6153      	str	r3, [r2, #20]
 8000388:	4b28      	ldr	r3, [pc, #160]	; (800042c <EXTI15_10_IRQHandler+0xc0>)
 800038a:	6a9b      	ldr	r3, [r3, #40]	; 0x28
 800038c:	4798      	blx	r3
 800038e:	4b26      	ldr	r3, [pc, #152]	; (8000428 <EXTI15_10_IRQHandler+0xbc>)
 8000390:	695b      	ldr	r3, [r3, #20]
 8000392:	f403 6300 	and.w	r3, r3, #2048	; 0x800
 8000396:	2b00      	cmp	r3, #0
 8000398:	d008      	beq.n	80003ac <EXTI15_10_IRQHandler+0x40>
 800039a:	4b23      	ldr	r3, [pc, #140]	; (8000428 <EXTI15_10_IRQHandler+0xbc>)
 800039c:	695b      	ldr	r3, [r3, #20]
 800039e:	4a22      	ldr	r2, [pc, #136]	; (8000428 <EXTI15_10_IRQHandler+0xbc>)
 80003a0:	f443 6300 	orr.w	r3, r3, #2048	; 0x800
 80003a4:	6153      	str	r3, [r2, #20]
 80003a6:	4b21      	ldr	r3, [pc, #132]	; (800042c <EXTI15_10_IRQHandler+0xc0>)
 80003a8:	6adb      	ldr	r3, [r3, #44]	; 0x2c
 80003aa:	4798      	blx	r3
 80003ac:	4b1e      	ldr	r3, [pc, #120]	; (8000428 <EXTI15_10_IRQHandler+0xbc>)
 80003ae:	695b      	ldr	r3, [r3, #20]
 80003b0:	f403 5380 	and.w	r3, r3, #4096	; 0x1000
 80003b4:	2b00      	cmp	r3, #0
 80003b6:	d008      	beq.n	80003ca <EXTI15_10_IRQHandler+0x5e>
 80003b8:	4b1b      	ldr	r3, [pc, #108]	; (8000428 <EXTI15_10_IRQHandler+0xbc>)
 80003ba:	695b      	ldr	r3, [r3, #20]
 80003bc:	4a1a      	ldr	r2, [pc, #104]	; (8000428 <EXTI15_10_IRQHandler+0xbc>)
 80003be:	f443 5380 	orr.w	r3, r3, #4096	; 0x1000
 80003c2:	6153      	str	r3, [r2, #20]
 80003c4:	4b19      	ldr	r3, [pc, #100]	; (800042c <EXTI15_10_IRQHandler+0xc0>)
 80003c6:	6b1b      	ldr	r3, [r3, #48]	; 0x30
 80003c8:	4798      	blx	r3
 80003ca:	4b17      	ldr	r3, [pc, #92]	; (8000428 <EXTI15_10_IRQHandler+0xbc>)
 80003cc:	695b      	ldr	r3, [r3, #20]
 80003ce:	f403 5300 	and.w	r3, r3, #8192	; 0x2000
 80003d2:	2b00      	cmp	r3, #0
 80003d4:	d008      	beq.n	80003e8 <EXTI15_10_IRQHandler+0x7c>
 80003d6:	4b14      	ldr	r3, [pc, #80]	; (8000428 <EXTI15_10_IRQHandler+0xbc>)
 80003d8:	695b      	ldr	r3, [r3, #20]
 80003da:	4a13      	ldr	r2, [pc, #76]	; (8000428 <EXTI15_10_IRQHandler+0xbc>)
 80003dc:	f443 5300 	orr.w	r3, r3, #8192	; 0x2000
 80003e0:	6153      	str	r3, [r2, #20]
 80003e2:	4b12      	ldr	r3, [pc, #72]	; (800042c <EXTI15_10_IRQHandler+0xc0>)
 80003e4:	6b5b      	ldr	r3, [r3, #52]	; 0x34
 80003e6:	4798      	blx	r3
 80003e8:	4b0f      	ldr	r3, [pc, #60]	; (8000428 <EXTI15_10_IRQHandler+0xbc>)
 80003ea:	695b      	ldr	r3, [r3, #20]
 80003ec:	f403 4380 	and.w	r3, r3, #16384	; 0x4000
 80003f0:	2b00      	cmp	r3, #0
 80003f2:	d008      	beq.n	8000406 <EXTI15_10_IRQHandler+0x9a>
 80003f4:	4b0c      	ldr	r3, [pc, #48]	; (8000428 <EXTI15_10_IRQHandler+0xbc>)
 80003f6:	695b      	ldr	r3, [r3, #20]
 80003f8:	4a0b      	ldr	r2, [pc, #44]	; (8000428 <EXTI15_10_IRQHandler+0xbc>)
 80003fa:	f443 4380 	orr.w	r3, r3, #16384	; 0x4000
 80003fe:	6153      	str	r3, [r2, #20]
 8000400:	4b0a      	ldr	r3, [pc, #40]	; (800042c <EXTI15_10_IRQHandler+0xc0>)
 8000402:	6b9b      	ldr	r3, [r3, #56]	; 0x38
 8000404:	4798      	blx	r3
 8000406:	4b08      	ldr	r3, [pc, #32]	; (8000428 <EXTI15_10_IRQHandler+0xbc>)
 8000408:	695b      	ldr	r3, [r3, #20]
 800040a:	f403 4300 	and.w	r3, r3, #32768	; 0x8000
 800040e:	2b00      	cmp	r3, #0
 8000410:	d008      	beq.n	8000424 <EXTI15_10_IRQHandler+0xb8>
 8000412:	4b05      	ldr	r3, [pc, #20]	; (8000428 <EXTI15_10_IRQHandler+0xbc>)
 8000414:	695b      	ldr	r3, [r3, #20]
 8000416:	4a04      	ldr	r2, [pc, #16]	; (8000428 <EXTI15_10_IRQHandler+0xbc>)
 8000418:	f443 4300 	orr.w	r3, r3, #32768	; 0x8000
 800041c:	6153      	str	r3, [r2, #20]
 800041e:	4b03      	ldr	r3, [pc, #12]	; (800042c <EXTI15_10_IRQHandler+0xc0>)
 8000420:	6bdb      	ldr	r3, [r3, #60]	; 0x3c
 8000422:	4798      	blx	r3
 8000424:	bf00      	nop
 8000426:	bd80      	pop	{r7, pc}
 8000428:	40010400 	.word	0x40010400
 800042c:	2000002c 	.word	0x2000002c

08000430 <Get_CRLH_Position>:
 8000430:	b480      	push	{r7}
 8000432:	b083      	sub	sp, #12
 8000434:	af00      	add	r7, sp, #0
 8000436:	4603      	mov	r3, r0
 8000438:	80fb      	strh	r3, [r7, #6]
 800043a:	88fb      	ldrh	r3, [r7, #6]
 800043c:	f5b3 4f00 	cmp.w	r3, #32768	; 0x8000
 8000440:	f000 80a5 	beq.w	800058e <Get_CRLH_Position+0x15e>
 8000444:	f5b3 4f00 	cmp.w	r3, #32768	; 0x8000
 8000448:	f300 80a3 	bgt.w	8000592 <Get_CRLH_Position+0x162>
 800044c:	f5b3 4f80 	cmp.w	r3, #16384	; 0x4000
 8000450:	f000 809b 	beq.w	800058a <Get_CRLH_Position+0x15a>
 8000454:	f5b3 4f80 	cmp.w	r3, #16384	; 0x4000
 8000458:	f300 809b 	bgt.w	8000592 <Get_CRLH_Position+0x162>
 800045c:	f5b3 5f00 	cmp.w	r3, #8192	; 0x2000
 8000460:	f000 8091 	beq.w	8000586 <Get_CRLH_Position+0x156>
 8000464:	f5b3 5f00 	cmp.w	r3, #8192	; 0x2000
 8000468:	f300 8093 	bgt.w	8000592 <Get_CRLH_Position+0x162>
 800046c:	f5b3 5f80 	cmp.w	r3, #4096	; 0x1000
 8000470:	f000 8087 	beq.w	8000582 <Get_CRLH_Position+0x152>
 8000474:	f5b3 5f80 	cmp.w	r3, #4096	; 0x1000
 8000478:	f300 808b 	bgt.w	8000592 <Get_CRLH_Position+0x162>
 800047c:	f5b3 6f00 	cmp.w	r3, #2048	; 0x800
 8000480:	d07d      	beq.n	800057e <Get_CRLH_Position+0x14e>
 8000482:	f5b3 6f00 	cmp.w	r3, #2048	; 0x800
 8000486:	f300 8084 	bgt.w	8000592 <Get_CRLH_Position+0x162>
 800048a:	f5b3 6f80 	cmp.w	r3, #1024	; 0x400
 800048e:	d074      	beq.n	800057a <Get_CRLH_Position+0x14a>
 8000490:	f5b3 6f80 	cmp.w	r3, #1024	; 0x400
 8000494:	dc7d      	bgt.n	8000592 <Get_CRLH_Position+0x162>
 8000496:	f5b3 7f00 	cmp.w	r3, #512	; 0x200
 800049a:	d06c      	beq.n	8000576 <Get_CRLH_Position+0x146>
 800049c:	f5b3 7f00 	cmp.w	r3, #512	; 0x200
 80004a0:	dc77      	bgt.n	8000592 <Get_CRLH_Position+0x162>
 80004a2:	f5b3 7f80 	cmp.w	r3, #256	; 0x100
 80004a6:	d064      	beq.n	8000572 <Get_CRLH_Position+0x142>
 80004a8:	f5b3 7f80 	cmp.w	r3, #256	; 0x100
 80004ac:	dc71      	bgt.n	8000592 <Get_CRLH_Position+0x162>
 80004ae:	2b80      	cmp	r3, #128	; 0x80
 80004b0:	d05d      	beq.n	800056e <Get_CRLH_Position+0x13e>
 80004b2:	2b80      	cmp	r3, #128	; 0x80
 80004b4:	dc6d      	bgt.n	8000592 <Get_CRLH_Position+0x162>
 80004b6:	2b20      	cmp	r3, #32
 80004b8:	dc48      	bgt.n	800054c <Get_CRLH_Position+0x11c>
 80004ba:	2b00      	cmp	r3, #0
 80004bc:	dd69      	ble.n	8000592 <Get_CRLH_Position+0x162>
 80004be:	3b01      	subs	r3, #1
 80004c0:	2b1f      	cmp	r3, #31
 80004c2:	d866      	bhi.n	8000592 <Get_CRLH_Position+0x162>
 80004c4:	a201      	add	r2, pc, #4	; (adr r2, 80004cc <Get_CRLH_Position+0x9c>)
 80004c6:	f852 f023 	ldr.w	pc, [r2, r3, lsl #2]
 80004ca:	bf00      	nop
 80004cc:	08000553 	.word	0x08000553
 80004d0:	08000557 	.word	0x08000557
 80004d4:	08000593 	.word	0x08000593
 80004d8:	0800055b 	.word	0x0800055b
 80004dc:	08000593 	.word	0x08000593
 80004e0:	08000593 	.word	0x08000593
 80004e4:	08000593 	.word	0x08000593
 80004e8:	0800055f 	.word	0x0800055f
 80004ec:	08000593 	.word	0x08000593
 80004f0:	08000593 	.word	0x08000593
 80004f4:	08000593 	.word	0x08000593
 80004f8:	08000593 	.word	0x08000593
 80004fc:	08000593 	.word	0x08000593
 8000500:	08000593 	.word	0x08000593
 8000504:	08000593 	.word	0x08000593
 8000508:	08000563 	.word	0x08000563
 800050c:	08000593 	.word	0x08000593
 8000510:	08000593 	.word	0x08000593
 8000514:	08000593 	.word	0x08000593
 8000518:	08000593 	.word	0x08000593
 800051c:	08000593 	.word	0x08000593
 8000520:	08000593 	.word	0x08000593
 8000524:	08000593 	.word	0x08000593
 8000528:	08000593 	.word	0x08000593
 800052c:	08000593 	.word	0x08000593
 8000530:	08000593 	.word	0x08000593
 8000534:	08000593 	.word	0x08000593
 8000538:	08000593 	.word	0x08000593
 800053c:	08000593 	.word	0x08000593
 8000540:	08000593 	.word	0x08000593
 8000544:	08000593 	.word	0x08000593
 8000548:	08000567 	.word	0x08000567
 800054c:	2b40      	cmp	r3, #64	; 0x40
 800054e:	d00c      	beq.n	800056a <Get_CRLH_Position+0x13a>
 8000550:	e01f      	b.n	8000592 <Get_CRLH_Position+0x162>
 8000552:	2300      	movs	r3, #0
 8000554:	e01f      	b.n	8000596 <Get_CRLH_Position+0x166>
 8000556:	2304      	movs	r3, #4
 8000558:	e01d      	b.n	8000596 <Get_CRLH_Position+0x166>
 800055a:	2308      	movs	r3, #8
 800055c:	e01b      	b.n	8000596 <Get_CRLH_Position+0x166>
 800055e:	230c      	movs	r3, #12
 8000560:	e019      	b.n	8000596 <Get_CRLH_Position+0x166>
 8000562:	2310      	movs	r3, #16
 8000564:	e017      	b.n	8000596 <Get_CRLH_Position+0x166>
 8000566:	2314      	movs	r3, #20
 8000568:	e015      	b.n	8000596 <Get_CRLH_Position+0x166>
 800056a:	2318      	movs	r3, #24
 800056c:	e013      	b.n	8000596 <Get_CRLH_Position+0x166>
 800056e:	231c      	movs	r3, #28
 8000570:	e011      	b.n	8000596 <Get_CRLH_Position+0x166>
 8000572:	2300      	movs	r3, #0
 8000574:	e00f      	b.n	8000596 <Get_CRLH_Position+0x166>
 8000576:	2304      	movs	r3, #4
 8000578:	e00d      	b.n	8000596 <Get_CRLH_Position+0x166>
 800057a:	2308      	movs	r3, #8
 800057c:	e00b      	b.n	8000596 <Get_CRLH_Position+0x166>
 800057e:	230c      	movs	r3, #12
 8000580:	e009      	b.n	8000596 <Get_CRLH_Position+0x166>
 8000582:	2310      	movs	r3, #16
 8000584:	e007      	b.n	8000596 <Get_CRLH_Position+0x166>
 8000586:	2314      	movs	r3, #20
 8000588:	e005      	b.n	8000596 <Get_CRLH_Position+0x166>
 800058a:	2318      	movs	r3, #24
 800058c:	e003      	b.n	8000596 <Get_CRLH_Position+0x166>
 800058e:	231c      	movs	r3, #28
 8000590:	e001      	b.n	8000596 <Get_CRLH_Position+0x166>
 8000592:	bf00      	nop
 8000594:	2300      	movs	r3, #0
 8000596:	4618      	mov	r0, r3
 8000598:	370c      	adds	r7, #12
 800059a:	46bd      	mov	sp, r7
 800059c:	bc80      	pop	{r7}
 800059e:	4770      	bx	lr

080005a0 <MCAL_GPIO_Init>:
 80005a0:	b590      	push	{r4, r7, lr}
 80005a2:	b085      	sub	sp, #20
 80005a4:	af00      	add	r7, sp, #0
 80005a6:	6078      	str	r0, [r7, #4]
 80005a8:	6039      	str	r1, [r7, #0]
 80005aa:	2300      	movs	r3, #0
 80005ac:	60bb      	str	r3, [r7, #8]
 80005ae:	2300      	movs	r3, #0
 80005b0:	73fb      	strb	r3, [r7, #15]
 80005b2:	683b      	ldr	r3, [r7, #0]
 80005b4:	881b      	ldrh	r3, [r3, #0]
 80005b6:	2bff      	cmp	r3, #255	; 0xff
 80005b8:	d801      	bhi.n	80005be <MCAL_GPIO_Init+0x1e>
 80005ba:	687b      	ldr	r3, [r7, #4]
 80005bc:	e001      	b.n	80005c2 <MCAL_GPIO_Init+0x22>
 80005be:	687b      	ldr	r3, [r7, #4]
 80005c0:	3304      	adds	r3, #4
 80005c2:	60bb      	str	r3, [r7, #8]
 80005c4:	683b      	ldr	r3, [r7, #0]
 80005c6:	881b      	ldrh	r3, [r3, #0]
 80005c8:	4618      	mov	r0, r3
 80005ca:	f7ff ff31 	bl	8000430 <Get_CRLH_Position>
 80005ce:	4603      	mov	r3, r0
 80005d0:	461a      	mov	r2, r3
 80005d2:	230f      	movs	r3, #15
 80005d4:	4093      	lsls	r3, r2
 80005d6:	43da      	mvns	r2, r3
 80005d8:	68bb      	ldr	r3, [r7, #8]
 80005da:	681b      	ldr	r3, [r3, #0]
 80005dc:	401a      	ands	r2, r3
 80005de:	68bb      	ldr	r3, [r7, #8]
 80005e0:	601a      	str	r2, [r3, #0]
 80005e2:	683b      	ldr	r3, [r7, #0]
 80005e4:	789b      	ldrb	r3, [r3, #2]
 80005e6:	2b07      	cmp	r3, #7
 80005e8:	d00b      	beq.n	8000602 <MCAL_GPIO_Init+0x62>
 80005ea:	683b      	ldr	r3, [r7, #0]
 80005ec:	789b      	ldrb	r3, [r3, #2]
 80005ee:	2b06      	cmp	r3, #6
 80005f0:	d007      	beq.n	8000602 <MCAL_GPIO_Init+0x62>
 80005f2:	683b      	ldr	r3, [r7, #0]
 80005f4:	789b      	ldrb	r3, [r3, #2]
 80005f6:	2b05      	cmp	r3, #5
 80005f8:	d003      	beq.n	8000602 <MCAL_GPIO_Init+0x62>
 80005fa:	683b      	ldr	r3, [r7, #0]
 80005fc:	789b      	ldrb	r3, [r3, #2]
 80005fe:	2b04      	cmp	r3, #4
 8000600:	d10e      	bne.n	8000620 <MCAL_GPIO_Init+0x80>
 8000602:	683b      	ldr	r3, [r7, #0]
 8000604:	789b      	ldrb	r3, [r3, #2]
 8000606:	3b04      	subs	r3, #4
 8000608:	009b      	lsls	r3, r3, #2
 800060a:	b25a      	sxtb	r2, r3
 800060c:	683b      	ldr	r3, [r7, #0]
 800060e:	78db      	ldrb	r3, [r3, #3]
 8000610:	b25b      	sxtb	r3, r3
 8000612:	4313      	orrs	r3, r2
 8000614:	b25b      	sxtb	r3, r3
 8000616:	b2db      	uxtb	r3, r3
 8000618:	f003 030f 	and.w	r3, r3, #15
 800061c:	73fb      	strb	r3, [r7, #15]
 800061e:	e02c      	b.n	800067a <MCAL_GPIO_Init+0xda>
 8000620:	683b      	ldr	r3, [r7, #0]
 8000622:	789b      	ldrb	r3, [r3, #2]
 8000624:	2b00      	cmp	r3, #0
 8000626:	d003      	beq.n	8000630 <MCAL_GPIO_Init+0x90>
 8000628:	683b      	ldr	r3, [r7, #0]
 800062a:	789b      	ldrb	r3, [r3, #2]
 800062c:	2b01      	cmp	r3, #1
 800062e:	d107      	bne.n	8000640 <MCAL_GPIO_Init+0xa0>
 8000630:	683b      	ldr	r3, [r7, #0]
 8000632:	789b      	ldrb	r3, [r3, #2]
 8000634:	009b      	lsls	r3, r3, #2
 8000636:	b2db      	uxtb	r3, r3
 8000638:	f003 030f 	and.w	r3, r3, #15
 800063c:	73fb      	strb	r3, [r7, #15]
 800063e:	e01c      	b.n	800067a <MCAL_GPIO_Init+0xda>
 8000640:	683b      	ldr	r3, [r7, #0]
 8000642:	789b      	ldrb	r3, [r3, #2]
 8000644:	2b08      	cmp	r3, #8
 8000646:	d102      	bne.n	800064e <MCAL_GPIO_Init+0xae>
 8000648:	2304      	movs	r3, #4
 800064a:	73fb      	strb	r3, [r7, #15]
 800064c:	e015      	b.n	800067a <MCAL_GPIO_Init+0xda>
 800064e:	2308      	movs	r3, #8
 8000650:	73fb      	strb	r3, [r7, #15]
 8000652:	683b      	ldr	r3, [r7, #0]
 8000654:	789b      	ldrb	r3, [r3, #2]
 8000656:	2b02      	cmp	r3, #2
 8000658:	d107      	bne.n	800066a <MCAL_GPIO_Init+0xca>
 800065a:	687b      	ldr	r3, [r7, #4]
 800065c:	68db      	ldr	r3, [r3, #12]
 800065e:	683a      	ldr	r2, [r7, #0]
 8000660:	8812      	ldrh	r2, [r2, #0]
 8000662:	431a      	orrs	r2, r3
 8000664:	687b      	ldr	r3, [r7, #4]
 8000666:	60da      	str	r2, [r3, #12]
 8000668:	e007      	b.n	800067a <MCAL_GPIO_Init+0xda>
 800066a:	687b      	ldr	r3, [r7, #4]
 800066c:	68db      	ldr	r3, [r3, #12]
 800066e:	683a      	ldr	r2, [r7, #0]
 8000670:	8812      	ldrh	r2, [r2, #0]
 8000672:	43d2      	mvns	r2, r2
 8000674:	401a      	ands	r2, r3
 8000676:	687b      	ldr	r3, [r7, #4]
 8000678:	60da      	str	r2, [r3, #12]
 800067a:	7bfc      	ldrb	r4, [r7, #15]
 800067c:	683b      	ldr	r3, [r7, #0]
 800067e:	881b      	ldrh	r3, [r3, #0]
 8000680:	4618      	mov	r0, r3
 8000682:	f7ff fed5 	bl	8000430 <Get_CRLH_Position>
 8000686:	4603      	mov	r3, r0
 8000688:	fa04 f203 	lsl.w	r2, r4, r3
 800068c:	68bb      	ldr	r3, [r7, #8]
 800068e:	681b      	ldr	r3, [r3, #0]
 8000690:	431a      	orrs	r2, r3
 8000692:	68bb      	ldr	r3, [r7, #8]
 8000694:	601a      	str	r2, [r3, #0]
 8000696:	bf00      	nop
 8000698:	3714      	adds	r7, #20
 800069a:	46bd      	mov	sp, r7
 800069c:	bd90      	pop	{r4, r7, pc}
	...

080006a0 <MCAL_RCC_GetSYS_CLKFreq>:
 80006a0:	b480      	push	{r7}
 80006a2:	af00      	add	r7, sp, #0
 80006a4:	4b0b      	ldr	r3, [pc, #44]	; (80006d4 <MCAL_RCC_GetSYS_CLKFreq+0x34>)
 80006a6:	685b      	ldr	r3, [r3, #4]
 80006a8:	089b      	lsrs	r3, r3, #2
 80006aa:	f003 0303 	and.w	r3, r3, #3
 80006ae:	2b02      	cmp	r3, #2
 80006b0:	d00a      	beq.n	80006c8 <MCAL_RCC_GetSYS_CLKFreq+0x28>
 80006b2:	2b02      	cmp	r3, #2
 80006b4:	d80a      	bhi.n	80006cc <MCAL_RCC_GetSYS_CLKFreq+0x2c>
 80006b6:	2b00      	cmp	r3, #0
 80006b8:	d002      	beq.n	80006c0 <MCAL_RCC_GetSYS_CLKFreq+0x20>
 80006ba:	2b01      	cmp	r3, #1
 80006bc:	d002      	beq.n	80006c4 <MCAL_RCC_GetSYS_CLKFreq+0x24>
 80006be:	e005      	b.n	80006cc <MCAL_RCC_GetSYS_CLKFreq+0x2c>
 80006c0:	4b05      	ldr	r3, [pc, #20]	; (80006d8 <MCAL_RCC_GetSYS_CLKFreq+0x38>)
 80006c2:	e003      	b.n	80006cc <MCAL_RCC_GetSYS_CLKFreq+0x2c>
 80006c4:	4b05      	ldr	r3, [pc, #20]	; (80006dc <MCAL_RCC_GetSYS_CLKFreq+0x3c>)
 80006c6:	e001      	b.n	80006cc <MCAL_RCC_GetSYS_CLKFreq+0x2c>
 80006c8:	4b04      	ldr	r3, [pc, #16]	; (80006dc <MCAL_RCC_GetSYS_CLKFreq+0x3c>)
 80006ca:	e7ff      	b.n	80006cc <MCAL_RCC_GetSYS_CLKFreq+0x2c>
 80006cc:	4618      	mov	r0, r3
 80006ce:	46bd      	mov	sp, r7
 80006d0:	bc80      	pop	{r7}
 80006d2:	4770      	bx	lr
 80006d4:	40021000 	.word	0x40021000
 80006d8:	007a1200 	.word	0x007a1200
 80006dc:	00f42400 	.word	0x00f42400

080006e0 <MCAL_RCC_GetHCLKFreq>:
 80006e0:	b580      	push	{r7, lr}
 80006e2:	af00      	add	r7, sp, #0
 80006e4:	f7ff ffdc 	bl	80006a0 <MCAL_RCC_GetSYS_CLKFreq>
 80006e8:	4602      	mov	r2, r0
 80006ea:	4b05      	ldr	r3, [pc, #20]	; (8000700 <MCAL_RCC_GetHCLKFreq+0x20>)
 80006ec:	685b      	ldr	r3, [r3, #4]
 80006ee:	091b      	lsrs	r3, r3, #4
 80006f0:	f003 030f 	and.w	r3, r3, #15
 80006f4:	4903      	ldr	r1, [pc, #12]	; (8000704 <MCAL_RCC_GetHCLKFreq+0x24>)
 80006f6:	5ccb      	ldrb	r3, [r1, r3]
 80006f8:	fa22 f303 	lsr.w	r3, r2, r3
 80006fc:	4618      	mov	r0, r3
 80006fe:	bd80      	pop	{r7, pc}
 8000700:	40021000 	.word	0x40021000
 8000704:	08000c6c 	.word	0x08000c6c

08000708 <MCAL_RCC_GetPCLK1Freq>:
 8000708:	b580      	push	{r7, lr}
 800070a:	af00      	add	r7, sp, #0
 800070c:	f7ff ffe8 	bl	80006e0 <MCAL_RCC_GetHCLKFreq>
 8000710:	4602      	mov	r2, r0
 8000712:	4b05      	ldr	r3, [pc, #20]	; (8000728 <MCAL_RCC_GetPCLK1Freq+0x20>)
 8000714:	685b      	ldr	r3, [r3, #4]
 8000716:	0a1b      	lsrs	r3, r3, #8
 8000718:	f003 0307 	and.w	r3, r3, #7
 800071c:	4903      	ldr	r1, [pc, #12]	; (800072c <MCAL_RCC_GetPCLK1Freq+0x24>)
 800071e:	5ccb      	ldrb	r3, [r1, r3]
 8000720:	fa22 f303 	lsr.w	r3, r2, r3
 8000724:	4618      	mov	r0, r3
 8000726:	bd80      	pop	{r7, pc}
 8000728:	40021000 	.word	0x40021000
 800072c:	08000c64 	.word	0x08000c64

08000730 <MCAL_RCC_GetPCLK2Freq>:
 8000730:	b580      	push	{r7, lr}
 8000732:	af00      	add	r7, sp, #0
 8000734:	f7ff ffd4 	bl	80006e0 <MCAL_RCC_GetHCLKFreq>
 8000738:	4602      	mov	r2, r0
 800073a:	4b05      	ldr	r3, [pc, #20]	; (8000750 <MCAL_RCC_GetPCLK2Freq+0x20>)
 800073c:	685b      	ldr	r3, [r3, #4]
 800073e:	0adb      	lsrs	r3, r3, #11
 8000740:	f003 0307 	and.w	r3, r3, #7
 8000744:	4903      	ldr	r1, [pc, #12]	; (8000754 <MCAL_RCC_GetPCLK2Freq+0x24>)
 8000746:	5ccb      	ldrb	r3, [r1, r3]
 8000748:	fa22 f303 	lsr.w	r3, r2, r3
 800074c:	4618      	mov	r0, r3
 800074e:	bd80      	pop	{r7, pc}
 8000750:	40021000 	.word	0x40021000
 8000754:	08000c64 	.word	0x08000c64

08000758 <MCAL_UART_Init>:
 8000758:	b580      	push	{r7, lr}
 800075a:	b084      	sub	sp, #16
 800075c:	af00      	add	r7, sp, #0
 800075e:	6078      	str	r0, [r7, #4]
 8000760:	6039      	str	r1, [r7, #0]
 8000762:	687b      	ldr	r3, [r7, #4]
 8000764:	4a59      	ldr	r2, [pc, #356]	; (80008cc <MCAL_UART_Init+0x174>)
 8000766:	4293      	cmp	r3, r2
 8000768:	d109      	bne.n	800077e <MCAL_UART_Init+0x26>
 800076a:	4b59      	ldr	r3, [pc, #356]	; (80008d0 <MCAL_UART_Init+0x178>)
 800076c:	699b      	ldr	r3, [r3, #24]
 800076e:	4a58      	ldr	r2, [pc, #352]	; (80008d0 <MCAL_UART_Init+0x178>)
 8000770:	f443 4380 	orr.w	r3, r3, #16384	; 0x4000
 8000774:	6193      	str	r3, [r2, #24]
 8000776:	4a57      	ldr	r2, [pc, #348]	; (80008d4 <MCAL_UART_Init+0x17c>)
 8000778:	683b      	ldr	r3, [r7, #0]
 800077a:	6013      	str	r3, [r2, #0]
 800077c:	e01a      	b.n	80007b4 <MCAL_UART_Init+0x5c>
 800077e:	687b      	ldr	r3, [r7, #4]
 8000780:	4a55      	ldr	r2, [pc, #340]	; (80008d8 <MCAL_UART_Init+0x180>)
 8000782:	4293      	cmp	r3, r2
 8000784:	d109      	bne.n	800079a <MCAL_UART_Init+0x42>
 8000786:	4b52      	ldr	r3, [pc, #328]	; (80008d0 <MCAL_UART_Init+0x178>)
 8000788:	69db      	ldr	r3, [r3, #28]
 800078a:	4a51      	ldr	r2, [pc, #324]	; (80008d0 <MCAL_UART_Init+0x178>)
 800078c:	f443 3300 	orr.w	r3, r3, #131072	; 0x20000
 8000790:	61d3      	str	r3, [r2, #28]
 8000792:	4a50      	ldr	r2, [pc, #320]	; (80008d4 <MCAL_UART_Init+0x17c>)
 8000794:	683b      	ldr	r3, [r7, #0]
 8000796:	6053      	str	r3, [r2, #4]
 8000798:	e00c      	b.n	80007b4 <MCAL_UART_Init+0x5c>
 800079a:	687b      	ldr	r3, [r7, #4]
 800079c:	4a4f      	ldr	r2, [pc, #316]	; (80008dc <MCAL_UART_Init+0x184>)
 800079e:	4293      	cmp	r3, r2
 80007a0:	d108      	bne.n	80007b4 <MCAL_UART_Init+0x5c>
 80007a2:	4b4b      	ldr	r3, [pc, #300]	; (80008d0 <MCAL_UART_Init+0x178>)
 80007a4:	69db      	ldr	r3, [r3, #28]
 80007a6:	4a4a      	ldr	r2, [pc, #296]	; (80008d0 <MCAL_UART_Init+0x178>)
 80007a8:	f443 2380 	orr.w	r3, r3, #262144	; 0x40000
 80007ac:	61d3      	str	r3, [r2, #28]
 80007ae:	4a49      	ldr	r2, [pc, #292]	; (80008d4 <MCAL_UART_Init+0x17c>)
 80007b0:	683b      	ldr	r3, [r7, #0]
 80007b2:	6093      	str	r3, [r2, #8]
 80007b4:	687b      	ldr	r3, [r7, #4]
 80007b6:	68db      	ldr	r3, [r3, #12]
 80007b8:	f443 5200 	orr.w	r2, r3, #8192	; 0x2000
 80007bc:	687b      	ldr	r3, [r7, #4]
 80007be:	60da      	str	r2, [r3, #12]
 80007c0:	687b      	ldr	r3, [r7, #4]
 80007c2:	68db      	ldr	r3, [r3, #12]
 80007c4:	683a      	ldr	r2, [r7, #0]
 80007c6:	7812      	ldrb	r2, [r2, #0]
 80007c8:	431a      	orrs	r2, r3
 80007ca:	687b      	ldr	r3, [r7, #4]
 80007cc:	60da      	str	r2, [r3, #12]
 80007ce:	687b      	ldr	r3, [r7, #4]
 80007d0:	68db      	ldr	r3, [r3, #12]
 80007d2:	683a      	ldr	r2, [r7, #0]
 80007d4:	7a12      	ldrb	r2, [r2, #8]
 80007d6:	431a      	orrs	r2, r3
 80007d8:	687b      	ldr	r3, [r7, #4]
 80007da:	60da      	str	r2, [r3, #12]
 80007dc:	687b      	ldr	r3, [r7, #4]
 80007de:	68db      	ldr	r3, [r3, #12]
 80007e0:	683a      	ldr	r2, [r7, #0]
 80007e2:	7a52      	ldrb	r2, [r2, #9]
 80007e4:	431a      	orrs	r2, r3
 80007e6:	687b      	ldr	r3, [r7, #4]
 80007e8:	60da      	str	r2, [r3, #12]
 80007ea:	687b      	ldr	r3, [r7, #4]
 80007ec:	691b      	ldr	r3, [r3, #16]
 80007ee:	683a      	ldr	r2, [r7, #0]
 80007f0:	7a92      	ldrb	r2, [r2, #10]
 80007f2:	431a      	orrs	r2, r3
 80007f4:	687b      	ldr	r3, [r7, #4]
 80007f6:	611a      	str	r2, [r3, #16]
 80007f8:	687b      	ldr	r3, [r7, #4]
 80007fa:	695b      	ldr	r3, [r3, #20]
 80007fc:	683a      	ldr	r2, [r7, #0]
 80007fe:	7ad2      	ldrb	r2, [r2, #11]
 8000800:	431a      	orrs	r2, r3
 8000802:	687b      	ldr	r3, [r7, #4]
 8000804:	615a      	str	r2, [r3, #20]
 8000806:	687b      	ldr	r3, [r7, #4]
 8000808:	4a30      	ldr	r2, [pc, #192]	; (80008cc <MCAL_UART_Init+0x174>)
 800080a:	4293      	cmp	r3, r2
 800080c:	d103      	bne.n	8000816 <MCAL_UART_Init+0xbe>
 800080e:	f7ff ff8f 	bl	8000730 <MCAL_RCC_GetPCLK2Freq>
 8000812:	60f8      	str	r0, [r7, #12]
 8000814:	e002      	b.n	800081c <MCAL_UART_Init+0xc4>
 8000816:	f7ff ff77 	bl	8000708 <MCAL_RCC_GetPCLK1Freq>
 800081a:	60f8      	str	r0, [r7, #12]
 800081c:	683b      	ldr	r3, [r7, #0]
 800081e:	685b      	ldr	r3, [r3, #4]
 8000820:	011b      	lsls	r3, r3, #4
 8000822:	68fa      	ldr	r2, [r7, #12]
 8000824:	fbb2 f3f3 	udiv	r3, r2, r3
 8000828:	0119      	lsls	r1, r3, #4
 800082a:	68fa      	ldr	r2, [r7, #12]
 800082c:	4613      	mov	r3, r2
 800082e:	009b      	lsls	r3, r3, #2
 8000830:	4413      	add	r3, r2
 8000832:	009a      	lsls	r2, r3, #2
 8000834:	441a      	add	r2, r3
 8000836:	683b      	ldr	r3, [r7, #0]
 8000838:	685b      	ldr	r3, [r3, #4]
 800083a:	009b      	lsls	r3, r3, #2
 800083c:	fbb2 f2f3 	udiv	r2, r2, r3
 8000840:	683b      	ldr	r3, [r7, #0]
 8000842:	685b      	ldr	r3, [r3, #4]
 8000844:	011b      	lsls	r3, r3, #4
 8000846:	68f8      	ldr	r0, [r7, #12]
 8000848:	fbb0 f3f3 	udiv	r3, r0, r3
 800084c:	2064      	movs	r0, #100	; 0x64
 800084e:	fb00 f303 	mul.w	r3, r0, r3
 8000852:	1ad3      	subs	r3, r2, r3
 8000854:	011b      	lsls	r3, r3, #4
 8000856:	4a22      	ldr	r2, [pc, #136]	; (80008e0 <MCAL_UART_Init+0x188>)
 8000858:	fba2 2303 	umull	r2, r3, r2, r3
 800085c:	095b      	lsrs	r3, r3, #5
 800085e:	f003 030f 	and.w	r3, r3, #15
 8000862:	430b      	orrs	r3, r1
 8000864:	60bb      	str	r3, [r7, #8]
 8000866:	687b      	ldr	r3, [r7, #4]
 8000868:	68ba      	ldr	r2, [r7, #8]
 800086a:	609a      	str	r2, [r3, #8]
 800086c:	683b      	ldr	r3, [r7, #0]
 800086e:	7b1b      	ldrb	r3, [r3, #12]
 8000870:	2b00      	cmp	r3, #0
 8000872:	d026      	beq.n	80008c2 <MCAL_UART_Init+0x16a>
 8000874:	687b      	ldr	r3, [r7, #4]
 8000876:	68db      	ldr	r3, [r3, #12]
 8000878:	683a      	ldr	r2, [r7, #0]
 800087a:	7b12      	ldrb	r2, [r2, #12]
 800087c:	431a      	orrs	r2, r3
 800087e:	687b      	ldr	r3, [r7, #4]
 8000880:	60da      	str	r2, [r3, #12]
 8000882:	687b      	ldr	r3, [r7, #4]
 8000884:	4a11      	ldr	r2, [pc, #68]	; (80008cc <MCAL_UART_Init+0x174>)
 8000886:	4293      	cmp	r3, r2
 8000888:	d106      	bne.n	8000898 <MCAL_UART_Init+0x140>
 800088a:	4b16      	ldr	r3, [pc, #88]	; (80008e4 <MCAL_UART_Init+0x18c>)
 800088c:	681b      	ldr	r3, [r3, #0]
 800088e:	4a15      	ldr	r2, [pc, #84]	; (80008e4 <MCAL_UART_Init+0x18c>)
 8000890:	f043 0320 	orr.w	r3, r3, #32
 8000894:	6013      	str	r3, [r2, #0]
 8000896:	e014      	b.n	80008c2 <MCAL_UART_Init+0x16a>
 8000898:	687b      	ldr	r3, [r7, #4]
 800089a:	4a0f      	ldr	r2, [pc, #60]	; (80008d8 <MCAL_UART_Init+0x180>)
 800089c:	4293      	cmp	r3, r2
 800089e:	d106      	bne.n	80008ae <MCAL_UART_Init+0x156>
 80008a0:	4b10      	ldr	r3, [pc, #64]	; (80008e4 <MCAL_UART_Init+0x18c>)
 80008a2:	681b      	ldr	r3, [r3, #0]
 80008a4:	4a0f      	ldr	r2, [pc, #60]	; (80008e4 <MCAL_UART_Init+0x18c>)
 80008a6:	f043 0340 	orr.w	r3, r3, #64	; 0x40
 80008aa:	6013      	str	r3, [r2, #0]
 80008ac:	e009      	b.n	80008c2 <MCAL_UART_Init+0x16a>
 80008ae:	687b      	ldr	r3, [r7, #4]
 80008b0:	4a0a      	ldr	r2, [pc, #40]	; (80008dc <MCAL_UART_Init+0x184>)
 80008b2:	4293      	cmp	r3, r2
 80008b4:	d105      	bne.n	80008c2 <MCAL_UART_Init+0x16a>
 80008b6:	4b0b      	ldr	r3, [pc, #44]	; (80008e4 <MCAL_UART_Init+0x18c>)
 80008b8:	681b      	ldr	r3, [r3, #0]
 80008ba:	4a0a      	ldr	r2, [pc, #40]	; (80008e4 <MCAL_UART_Init+0x18c>)
 80008bc:	f043 0380 	orr.w	r3, r3, #128	; 0x80
 80008c0:	6013      	str	r3, [r2, #0]
 80008c2:	bf00      	nop
 80008c4:	3710      	adds	r7, #16
 80008c6:	46bd      	mov	sp, r7
 80008c8:	bd80      	pop	{r7, pc}
 80008ca:	bf00      	nop
 80008cc:	40013800 	.word	0x40013800
 80008d0:	40021000 	.word	0x40021000
 80008d4:	2000001c 	.word	0x2000001c
 80008d8:	40004400 	.word	0x40004400
 80008dc:	40004800 	.word	0x40004800
 80008e0:	51eb851f 	.word	0x51eb851f
 80008e4:	e000e104 	.word	0xe000e104

080008e8 <MCAL_UART_SendData>:
 80008e8:	b480      	push	{r7}
 80008ea:	b085      	sub	sp, #20
 80008ec:	af00      	add	r7, sp, #0
 80008ee:	60f8      	str	r0, [r7, #12]
 80008f0:	60b9      	str	r1, [r7, #8]
 80008f2:	4613      	mov	r3, r2
 80008f4:	71fb      	strb	r3, [r7, #7]
 80008f6:	79fb      	ldrb	r3, [r7, #7]
 80008f8:	2b00      	cmp	r3, #0
 80008fa:	d106      	bne.n	800090a <MCAL_UART_SendData+0x22>
 80008fc:	bf00      	nop
 80008fe:	68fb      	ldr	r3, [r7, #12]
 8000900:	681b      	ldr	r3, [r3, #0]
 8000902:	f003 0380 	and.w	r3, r3, #128	; 0x80
 8000906:	2b00      	cmp	r3, #0
 8000908:	d0f9      	beq.n	80008fe <MCAL_UART_SendData+0x16>
 800090a:	68fb      	ldr	r3, [r7, #12]
 800090c:	4a17      	ldr	r2, [pc, #92]	; (800096c <MCAL_UART_SendData+0x84>)
 800090e:	4293      	cmp	r3, r2
 8000910:	d10a      	bne.n	8000928 <MCAL_UART_SendData+0x40>
 8000912:	4b17      	ldr	r3, [pc, #92]	; (8000970 <MCAL_UART_SendData+0x88>)
 8000914:	681b      	ldr	r3, [r3, #0]
 8000916:	7a1b      	ldrb	r3, [r3, #8]
 8000918:	2b00      	cmp	r3, #0
 800091a:	d122      	bne.n	8000962 <MCAL_UART_SendData+0x7a>
 800091c:	68bb      	ldr	r3, [r7, #8]
 800091e:	881b      	ldrh	r3, [r3, #0]
 8000920:	b2da      	uxtb	r2, r3
 8000922:	68fb      	ldr	r3, [r7, #12]
 8000924:	605a      	str	r2, [r3, #4]
 8000926:	e01c      	b.n	8000962 <MCAL_UART_SendData+0x7a>
 8000928:	68fb      	ldr	r3, [r7, #12]
 800092a:	4a12      	ldr	r2, [pc, #72]	; (8000974 <MCAL_UART_SendData+0x8c>)
 800092c:	4293      	cmp	r3, r2
 800092e:	d10a      	bne.n	8000946 <MCAL_UART_SendData+0x5e>
 8000930:	4b0f      	ldr	r3, [pc, #60]	; (8000970 <MCAL_UART_SendData+0x88>)
 8000932:	685b      	ldr	r3, [r3, #4]
 8000934:	7a1b      	ldrb	r3, [r3, #8]
 8000936:	2b00      	cmp	r3, #0
 8000938:	d113      	bne.n	8000962 <MCAL_UART_SendData+0x7a>
 800093a:	68bb      	ldr	r3, [r7, #8]
 800093c:	881b      	ldrh	r3, [r3, #0]
 800093e:	b2da      	uxtb	r2, r3
 8000940:	68fb      	ldr	r3, [r7, #12]
 8000942:	605a      	str	r2, [r3, #4]
 8000944:	e00d      	b.n	8000962 <MCAL_UART_SendData+0x7a>
 8000946:	68fb      	ldr	r3, [r7, #12]
 8000948:	4a0b      	ldr	r2, [pc, #44]	; (8000978 <MCAL_UART_SendData+0x90>)
 800094a:	4293      	cmp	r3, r2
 800094c:	d109      	bne.n	8000962 <MCAL_UART_SendData+0x7a>
 800094e:	4b08      	ldr	r3, [pc, #32]	; (8000970 <MCAL_UART_SendData+0x88>)
 8000950:	689b      	ldr	r3, [r3, #8]
 8000952:	7a1b      	ldrb	r3, [r3, #8]
 8000954:	2b00      	cmp	r3, #0
 8000956:	d104      	bne.n	8000962 <MCAL_UART_SendData+0x7a>
 8000958:	68bb      	ldr	r3, [r7, #8]
 800095a:	881b      	ldrh	r3, [r3, #0]
 800095c:	b2da      	uxtb	r2, r3
 800095e:	68fb      	ldr	r3, [r7, #12]
 8000960:	605a      	str	r2, [r3, #4]
 8000962:	bf00      	nop
 8000964:	3714      	adds	r7, #20
 8000966:	46bd      	mov	sp, r7
 8000968:	bc80      	pop	{r7}
 800096a:	4770      	bx	lr
 800096c:	40013800 	.word	0x40013800
 8000970:	2000001c 	.word	0x2000001c
 8000974:	40004400 	.word	0x40004400
 8000978:	40004800 	.word	0x40004800

0800097c <MCAL_UART_ReceiveData>:
 800097c:	b480      	push	{r7}
 800097e:	b085      	sub	sp, #20
 8000980:	af00      	add	r7, sp, #0
 8000982:	60f8      	str	r0, [r7, #12]
 8000984:	60b9      	str	r1, [r7, #8]
 8000986:	4613      	mov	r3, r2
 8000988:	71fb      	strb	r3, [r7, #7]
 800098a:	79fb      	ldrb	r3, [r7, #7]
 800098c:	2b00      	cmp	r3, #0
 800098e:	d106      	bne.n	800099e <MCAL_UART_ReceiveData+0x22>
 8000990:	bf00      	nop
 8000992:	68fb      	ldr	r3, [r7, #12]
 8000994:	681b      	ldr	r3, [r3, #0]
 8000996:	f003 0320 	and.w	r3, r3, #32
 800099a:	2b00      	cmp	r3, #0
 800099c:	d0f9      	beq.n	8000992 <MCAL_UART_ReceiveData+0x16>
 800099e:	68fb      	ldr	r3, [r7, #12]
 80009a0:	4a28      	ldr	r2, [pc, #160]	; (8000a44 <MCAL_UART_ReceiveData+0xc8>)
 80009a2:	4293      	cmp	r3, r2
 80009a4:	d115      	bne.n	80009d2 <MCAL_UART_ReceiveData+0x56>
 80009a6:	4b28      	ldr	r3, [pc, #160]	; (8000a48 <MCAL_UART_ReceiveData+0xcc>)
 80009a8:	681b      	ldr	r3, [r3, #0]
 80009aa:	7a5b      	ldrb	r3, [r3, #9]
 80009ac:	2b00      	cmp	r3, #0
 80009ae:	d107      	bne.n	80009c0 <MCAL_UART_ReceiveData+0x44>
 80009b0:	68fb      	ldr	r3, [r7, #12]
 80009b2:	685b      	ldr	r3, [r3, #4]
 80009b4:	b29b      	uxth	r3, r3
 80009b6:	b2db      	uxtb	r3, r3
 80009b8:	b29a      	uxth	r2, r3
 80009ba:	68bb      	ldr	r3, [r7, #8]
 80009bc:	801a      	strh	r2, [r3, #0]
 80009be:	e03b      	b.n	8000a38 <MCAL_UART_ReceiveData+0xbc>
 80009c0:	68fb      	ldr	r3, [r7, #12]
 80009c2:	685b      	ldr	r3, [r3, #4]
 80009c4:	b29b      	uxth	r3, r3
 80009c6:	f003 037f 	and.w	r3, r3, #127	; 0x7f
 80009ca:	b29a      	uxth	r2, r3
 80009cc:	68bb      	ldr	r3, [r7, #8]
 80009ce:	801a      	strh	r2, [r3, #0]
 80009d0:	e032      	b.n	8000a38 <MCAL_UART_ReceiveData+0xbc>
 80009d2:	68fb      	ldr	r3, [r7, #12]
 80009d4:	4a1d      	ldr	r2, [pc, #116]	; (8000a4c <MCAL_UART_ReceiveData+0xd0>)
 80009d6:	4293      	cmp	r3, r2
 80009d8:	d115      	bne.n	8000a06 <MCAL_UART_ReceiveData+0x8a>
 80009da:	4b1b      	ldr	r3, [pc, #108]	; (8000a48 <MCAL_UART_ReceiveData+0xcc>)
 80009dc:	685b      	ldr	r3, [r3, #4]
 80009de:	7a5b      	ldrb	r3, [r3, #9]
 80009e0:	2b00      	cmp	r3, #0
 80009e2:	d107      	bne.n	80009f4 <MCAL_UART_ReceiveData+0x78>
 80009e4:	68fb      	ldr	r3, [r7, #12]
 80009e6:	685b      	ldr	r3, [r3, #4]
 80009e8:	b29b      	uxth	r3, r3
 80009ea:	b2db      	uxtb	r3, r3
 80009ec:	b29a      	uxth	r2, r3
 80009ee:	68bb      	ldr	r3, [r7, #8]
 80009f0:	801a      	strh	r2, [r3, #0]
 80009f2:	e021      	b.n	8000a38 <MCAL_UART_ReceiveData+0xbc>
 80009f4:	68fb      	ldr	r3, [r7, #12]
 80009f6:	685b      	ldr	r3, [r3, #4]
 80009f8:	b29b      	uxth	r3, r3
 80009fa:	f003 037f 	and.w	r3, r3, #127	; 0x7f
 80009fe:	b29a      	uxth	r2, r3
 8000a00:	68bb      	ldr	r3, [r7, #8]
 8000a02:	801a      	strh	r2, [r3, #0]
 8000a04:	e018      	b.n	8000a38 <MCAL_UART_ReceiveData+0xbc>
 8000a06:	68fb      	ldr	r3, [r7, #12]
 8000a08:	4a11      	ldr	r2, [pc, #68]	; (8000a50 <MCAL_UART_ReceiveData+0xd4>)
 8000a0a:	4293      	cmp	r3, r2
 8000a0c:	d114      	bne.n	8000a38 <MCAL_UART_ReceiveData+0xbc>
 8000a0e:	4b0e      	ldr	r3, [pc, #56]	; (8000a48 <MCAL_UART_ReceiveData+0xcc>)
 8000a10:	689b      	ldr	r3, [r3, #8]
 8000a12:	7a5b      	ldrb	r3, [r3, #9]
 8000a14:	2b00      	cmp	r3, #0
 8000a16:	d107      	bne.n	8000a28 <MCAL_UART_ReceiveData+0xac>
 8000a18:	68fb      	ldr	r3, [r7, #12]
 8000a1a:	685b      	ldr	r3, [r3, #4]
 8000a1c:	b29b      	uxth	r3, r3
 8000a1e:	b2db      	uxtb	r3, r3
 8000a20:	b29a      	uxth	r2, r3
 8000a22:	68bb      	ldr	r3, [r7, #8]
 8000a24:	801a      	strh	r2, [r3, #0]
 8000a26:	e007      	b.n	8000a38 <MCAL_UART_ReceiveData+0xbc>
 8000a28:	68fb      	ldr	r3, [r7, #12]
 8000a2a:	685b      	ldr	r3, [r3, #4]
 8000a2c:	b29b      	uxth	r3, r3
 8000a2e:	f003 037f 	and.w	r3, r3, #127	; 0x7f
 8000a32:	b29a      	uxth	r2, r3
 8000a34:	68bb      	ldr	r3, [r7, #8]
 8000a36:	801a      	strh	r2, [r3, #0]
 8000a38:	bf00      	nop
 8000a3a:	3714      	adds	r7, #20
 8000a3c:	46bd      	mov	sp, r7
 8000a3e:	bc80      	pop	{r7}
 8000a40:	4770      	bx	lr
 8000a42:	bf00      	nop
 8000a44:	40013800 	.word	0x40013800
 8000a48:	2000001c 	.word	0x2000001c
 8000a4c:	40004400 	.word	0x40004400
 8000a50:	40004800 	.word	0x40004800

08000a54 <MCAL_UART_GPIO_Set_Pins>:
 8000a54:	b580      	push	{r7, lr}
 8000a56:	b084      	sub	sp, #16
 8000a58:	af00      	add	r7, sp, #0
 8000a5a:	6078      	str	r0, [r7, #4]
 8000a5c:	687b      	ldr	r3, [r7, #4]
 8000a5e:	4a3b      	ldr	r2, [pc, #236]	; (8000b4c <MCAL_UART_GPIO_Set_Pins+0xf8>)
 8000a60:	4293      	cmp	r3, r2
 8000a62:	d118      	bne.n	8000a96 <MCAL_UART_GPIO_Set_Pins+0x42>
 8000a64:	f44f 7300 	mov.w	r3, #512	; 0x200
 8000a68:	81bb      	strh	r3, [r7, #12]
 8000a6a:	2306      	movs	r3, #6
 8000a6c:	73bb      	strb	r3, [r7, #14]
 8000a6e:	2301      	movs	r3, #1
 8000a70:	73fb      	strb	r3, [r7, #15]
 8000a72:	f107 030c 	add.w	r3, r7, #12
 8000a76:	4619      	mov	r1, r3
 8000a78:	4835      	ldr	r0, [pc, #212]	; (8000b50 <MCAL_UART_GPIO_Set_Pins+0xfc>)
 8000a7a:	f7ff fd91 	bl	80005a0 <MCAL_GPIO_Init>
 8000a7e:	f44f 6380 	mov.w	r3, #1024	; 0x400
 8000a82:	81bb      	strh	r3, [r7, #12]
 8000a84:	2308      	movs	r3, #8
 8000a86:	73bb      	strb	r3, [r7, #14]
 8000a88:	f107 030c 	add.w	r3, r7, #12
 8000a8c:	4619      	mov	r1, r3
 8000a8e:	4830      	ldr	r0, [pc, #192]	; (8000b50 <MCAL_UART_GPIO_Set_Pins+0xfc>)
 8000a90:	f7ff fd86 	bl	80005a0 <MCAL_GPIO_Init>
 8000a94:	e055      	b.n	8000b42 <MCAL_UART_GPIO_Set_Pins+0xee>
 8000a96:	687b      	ldr	r3, [r7, #4]
 8000a98:	4a2e      	ldr	r2, [pc, #184]	; (8000b54 <MCAL_UART_GPIO_Set_Pins+0x100>)
 8000a9a:	4293      	cmp	r3, r2
 8000a9c:	d125      	bne.n	8000aea <MCAL_UART_GPIO_Set_Pins+0x96>
 8000a9e:	2304      	movs	r3, #4
 8000aa0:	81bb      	strh	r3, [r7, #12]
 8000aa2:	2306      	movs	r3, #6
 8000aa4:	73bb      	strb	r3, [r7, #14]
 8000aa6:	2301      	movs	r3, #1
 8000aa8:	73fb      	strb	r3, [r7, #15]
 8000aaa:	f107 030c 	add.w	r3, r7, #12
 8000aae:	4619      	mov	r1, r3
 8000ab0:	4827      	ldr	r0, [pc, #156]	; (8000b50 <MCAL_UART_GPIO_Set_Pins+0xfc>)
 8000ab2:	f7ff fd75 	bl	80005a0 <MCAL_GPIO_Init>
 8000ab6:	2308      	movs	r3, #8
 8000ab8:	81bb      	strh	r3, [r7, #12]
 8000aba:	2308      	movs	r3, #8
 8000abc:	73bb      	strb	r3, [r7, #14]
 8000abe:	f107 030c 	add.w	r3, r7, #12
 8000ac2:	4619      	mov	r1, r3
 8000ac4:	4822      	ldr	r0, [pc, #136]	; (8000b50 <MCAL_UART_GPIO_Set_Pins+0xfc>)
 8000ac6:	f7ff fd6b 	bl	80005a0 <MCAL_GPIO_Init>
 8000aca:	4b23      	ldr	r3, [pc, #140]	; (8000b58 <MCAL_UART_GPIO_Set_Pins+0x104>)
 8000acc:	685b      	ldr	r3, [r3, #4]
 8000ace:	7adb      	ldrb	r3, [r3, #11]
 8000ad0:	2b00      	cmp	r3, #0
 8000ad2:	d036      	beq.n	8000b42 <MCAL_UART_GPIO_Set_Pins+0xee>
 8000ad4:	2301      	movs	r3, #1
 8000ad6:	81bb      	strh	r3, [r7, #12]
 8000ad8:	2301      	movs	r3, #1
 8000ada:	73bb      	strb	r3, [r7, #14]
 8000adc:	f107 030c 	add.w	r3, r7, #12
 8000ae0:	4619      	mov	r1, r3
 8000ae2:	481b      	ldr	r0, [pc, #108]	; (8000b50 <MCAL_UART_GPIO_Set_Pins+0xfc>)
 8000ae4:	f7ff fd5c 	bl	80005a0 <MCAL_GPIO_Init>
 8000ae8:	e02b      	b.n	8000b42 <MCAL_UART_GPIO_Set_Pins+0xee>
 8000aea:	687b      	ldr	r3, [r7, #4]
 8000aec:	4a1b      	ldr	r2, [pc, #108]	; (8000b5c <MCAL_UART_GPIO_Set_Pins+0x108>)
 8000aee:	4293      	cmp	r3, r2
 8000af0:	d127      	bne.n	8000b42 <MCAL_UART_GPIO_Set_Pins+0xee>
 8000af2:	f44f 6380 	mov.w	r3, #1024	; 0x400
 8000af6:	81bb      	strh	r3, [r7, #12]
 8000af8:	2306      	movs	r3, #6
 8000afa:	73bb      	strb	r3, [r7, #14]
 8000afc:	2301      	movs	r3, #1
 8000afe:	73fb      	strb	r3, [r7, #15]
 8000b00:	f107 030c 	add.w	r3, r7, #12
 8000b04:	4619      	mov	r1, r3
 8000b06:	4816      	ldr	r0, [pc, #88]	; (8000b60 <MCAL_UART_GPIO_Set_Pins+0x10c>)
 8000b08:	f7ff fd4a 	bl	80005a0 <MCAL_GPIO_Init>
 8000b0c:	f44f 6300 	mov.w	r3, #2048	; 0x800
 8000b10:	81bb      	strh	r3, [r7, #12]
 8000b12:	2308      	movs	r3, #8
 8000b14:	73bb      	strb	r3, [r7, #14]
 8000b16:	f107 030c 	add.w	r3, r7, #12
 8000b1a:	4619      	mov	r1, r3
 8000b1c:	4810      	ldr	r0, [pc, #64]	; (8000b60 <MCAL_UART_GPIO_Set_Pins+0x10c>)
 8000b1e:	f7ff fd3f 	bl	80005a0 <MCAL_GPIO_Init>
 8000b22:	4b0d      	ldr	r3, [pc, #52]	; (8000b58 <MCAL_UART_GPIO_Set_Pins+0x104>)
 8000b24:	689b      	ldr	r3, [r3, #8]
 8000b26:	7adb      	ldrb	r3, [r3, #11]
 8000b28:	2b00      	cmp	r3, #0
 8000b2a:	d00a      	beq.n	8000b42 <MCAL_UART_GPIO_Set_Pins+0xee>
 8000b2c:	f44f 5300 	mov.w	r3, #8192	; 0x2000
 8000b30:	81bb      	strh	r3, [r7, #12]
 8000b32:	2301      	movs	r3, #1
 8000b34:	73bb      	strb	r3, [r7, #14]
 8000b36:	f107 030c 	add.w	r3, r7, #12
 8000b3a:	4619      	mov	r1, r3
 8000b3c:	4808      	ldr	r0, [pc, #32]	; (8000b60 <MCAL_UART_GPIO_Set_Pins+0x10c>)
 8000b3e:	f7ff fd2f 	bl	80005a0 <MCAL_GPIO_Init>
 8000b42:	bf00      	nop
 8000b44:	3710      	adds	r7, #16
 8000b46:	46bd      	mov	sp, r7
 8000b48:	bd80      	pop	{r7, pc}
 8000b4a:	bf00      	nop
 8000b4c:	40013800 	.word	0x40013800
 8000b50:	40010800 	.word	0x40010800
 8000b54:	40004400 	.word	0x40004400
 8000b58:	2000001c 	.word	0x2000001c
 8000b5c:	40004800 	.word	0x40004800
 8000b60:	40010c00 	.word	0x40010c00

08000b64 <USART1_IRQHandler>:
 8000b64:	b580      	push	{r7, lr}
 8000b66:	af00      	add	r7, sp, #0
 8000b68:	4b02      	ldr	r3, [pc, #8]	; (8000b74 <USART1_IRQHandler+0x10>)
 8000b6a:	681b      	ldr	r3, [r3, #0]
 8000b6c:	691b      	ldr	r3, [r3, #16]
 8000b6e:	4798      	blx	r3
 8000b70:	bf00      	nop
 8000b72:	bd80      	pop	{r7, pc}
 8000b74:	2000001c 	.word	0x2000001c

08000b78 <USART2_IRQHandler>:
 8000b78:	b580      	push	{r7, lr}
 8000b7a:	af00      	add	r7, sp, #0
 8000b7c:	4b02      	ldr	r3, [pc, #8]	; (8000b88 <USART2_IRQHandler+0x10>)
 8000b7e:	685b      	ldr	r3, [r3, #4]
 8000b80:	691b      	ldr	r3, [r3, #16]
 8000b82:	4798      	blx	r3
 8000b84:	bf00      	nop
 8000b86:	bd80      	pop	{r7, pc}
 8000b88:	2000001c 	.word	0x2000001c

08000b8c <USART3_IRQHandler>:
 8000b8c:	b580      	push	{r7, lr}
 8000b8e:	af00      	add	r7, sp, #0
 8000b90:	4b02      	ldr	r3, [pc, #8]	; (8000b9c <USART3_IRQHandler+0x10>)
 8000b92:	689b      	ldr	r3, [r3, #8]
 8000b94:	691b      	ldr	r3, [r3, #16]
 8000b96:	4798      	blx	r3
 8000b98:	bf00      	nop
 8000b9a:	bd80      	pop	{r7, pc}
 8000b9c:	2000001c 	.word	0x2000001c

08000ba0 <main>:

#include "06_USART_Test_2_Debugging_Using_Interrupt.h"

/* =========== Main Program ========== */
int main(void)
{
 8000ba0:	b580      	push	{r7, lr}
 8000ba2:	af00      	add	r7, sp, #0
	USART_Test_2_Debugging_Using_Interrupt();
 8000ba4:	f7ff fae4 	bl	8000170 <USART_Test_2_Debugging_Using_Interrupt>
	return 0;
 8000ba8:	2300      	movs	r3, #0
}
 8000baa:	4618      	mov	r0, r3
 8000bac:	bd80      	pop	{r7, pc}
	...

08000bb0 <Reset_Handler>:
 8000bb0:	480d      	ldr	r0, [pc, #52]	; (8000be8 <LoopForever+0x2>)
 8000bb2:	4685      	mov	sp, r0
 8000bb4:	f3af 8000 	nop.w
 8000bb8:	480c      	ldr	r0, [pc, #48]	; (8000bec <LoopForever+0x6>)
 8000bba:	490d      	ldr	r1, [pc, #52]	; (8000bf0 <LoopForever+0xa>)
 8000bbc:	4a0d      	ldr	r2, [pc, #52]	; (8000bf4 <LoopForever+0xe>)
 8000bbe:	2300      	movs	r3, #0
 8000bc0:	e002      	b.n	8000bc8 <LoopCopyDataInit>

08000bc2 <CopyDataInit>:
 8000bc2:	58d4      	ldr	r4, [r2, r3]
 8000bc4:	50c4      	str	r4, [r0, r3]
 8000bc6:	3304      	adds	r3, #4

08000bc8 <LoopCopyDataInit>:
 8000bc8:	18c4      	adds	r4, r0, r3
 8000bca:	428c      	cmp	r4, r1
 8000bcc:	d3f9      	bcc.n	8000bc2 <CopyDataInit>
 8000bce:	4a0a      	ldr	r2, [pc, #40]	; (8000bf8 <LoopForever+0x12>)
 8000bd0:	4c0a      	ldr	r4, [pc, #40]	; (8000bfc <LoopForever+0x16>)
 8000bd2:	2300      	movs	r3, #0
 8000bd4:	e001      	b.n	8000bda <LoopFillZerobss>

08000bd6 <FillZerobss>:
 8000bd6:	6013      	str	r3, [r2, #0]
 8000bd8:	3204      	adds	r2, #4

08000bda <LoopFillZerobss>:
 8000bda:	42a2      	cmp	r2, r4
 8000bdc:	d3fb      	bcc.n	8000bd6 <FillZerobss>
 8000bde:	f000 f811 	bl	8000c04 <__libc_init_array>
 8000be2:	f7ff ffdd 	bl	8000ba0 <main>

08000be6 <LoopForever>:
 8000be6:	e7fe      	b.n	8000be6 <LoopForever>
 8000be8:	20002800 	.word	0x20002800
 8000bec:	20000000 	.word	0x20000000
 8000bf0:	20000000 	.word	0x20000000
 8000bf4:	08000c84 	.word	0x08000c84
 8000bf8:	20000000 	.word	0x20000000
 8000bfc:	20000068 	.word	0x20000068

08000c00 <ADC1_2_IRQHandler>:
 8000c00:	e7fe      	b.n	8000c00 <ADC1_2_IRQHandler>
	...

08000c04 <__libc_init_array>:
 8000c04:	b570      	push	{r4, r5, r6, lr}
 8000c06:	2500      	movs	r5, #0
 8000c08:	4e0c      	ldr	r6, [pc, #48]	; (8000c3c <__libc_init_array+0x38>)
 8000c0a:	4c0d      	ldr	r4, [pc, #52]	; (8000c40 <__libc_init_array+0x3c>)
 8000c0c:	1ba4      	subs	r4, r4, r6
 8000c0e:	10a4      	asrs	r4, r4, #2
 8000c10:	42a5      	cmp	r5, r4
 8000c12:	d109      	bne.n	8000c28 <__libc_init_array+0x24>
 8000c14:	f000 f81a 	bl	8000c4c <_init>
 8000c18:	2500      	movs	r5, #0
 8000c1a:	4e0a      	ldr	r6, [pc, #40]	; (8000c44 <__libc_init_array+0x40>)
 8000c1c:	4c0a      	ldr	r4, [pc, #40]	; (8000c48 <__libc_init_array+0x44>)
 8000c1e:	1ba4      	subs	r4, r4, r6
 8000c20:	10a4      	asrs	r4, r4, #2
 8000c22:	42a5      	cmp	r5, r4
 8000c24:	d105      	bne.n	8000c32 <__libc_init_array+0x2e>
 8000c26:	bd70      	pop	{r4, r5, r6, pc}
 8000c28:	f856 3025 	ldr.w	r3, [r6, r5, lsl #2]
 8000c2c:	4798      	blx	r3
 8000c2e:	3501      	adds	r5, #1
 8000c30:	e7ee      	b.n	8000c10 <__libc_init_array+0xc>
 8000c32:	f856 3025 	ldr.w	r3, [r6, r5, lsl #2]
 8000c36:	4798      	blx	r3
 8000c38:	3501      	adds	r5, #1
 8000c3a:	e7f2      	b.n	8000c22 <__libc_init_array+0x1e>
 8000c3c:	08000c7c 	.word	0x08000c7c
 8000c40:	08000c7c 	.word	0x08000c7c
 8000c44:	08000c7c 	.word	0x08000c7c
 8000c48:	08000c80 	.word	0x08000c80

08000c4c <_init>:
 8000c4c:	b5f8      	push	{r3, r4, r5, r6, r7, lr}
 8000c4e:	bf00      	nop
 8000c50:	bcf8      	pop	{r3, r4, r5, r6, r7}
 8000c52:	bc08      	pop	{r3}
 8000c54:	469e      	mov	lr, r3
 8000c56:	4770      	bx	lr

08000c58 <_fini>:
 8000c58:	b5f8      	push	{r3, r4, r5, r6, r7, lr}
 8000c5a:	bf00      	nop
 8000c5c:	bcf8      	pop	{r3, r4, r5, r6, r7}
 8000c5e:	bc08      	pop	{r3}
 8000c60:	469e      	mov	lr, r3
 8000c62:	4770      	bx	lr
